target datalayout = "e-m:e-p270:32:32-p271:32:32-p272:64:64-i64:64-i128:128-f80:128-n8:16:32:64-S128"
target triple = "x86_64-pc-linux-gnu"

%struct.range_set = type { i32, i32, ptr }
%struct.range = type { i64, i64 }

; Function Attrs: nounwind uwtable
define internal void @range_set_check_invariants(ptr noundef %0) #0 {
  %2 = alloca ptr, align 8
  %3 = alloca i32, align 4
  %4 = alloca i32, align 4
  store ptr %0, ptr %2, align 8, !tbaa !4
  call void @llvm.lifetime.start.p0(i64 4, ptr %3) #9
  %5 = load ptr, ptr %2, align 8, !tbaa !4
  %6 = icmp ne ptr %5, null
  br i1 %6, label %8, label %7

7:                                                ; preds = %1
  store i32 1, ptr %4, align 4
  br label %26

8:                                                ; preds = %1
  %9 = load ptr, ptr %2, align 8, !tbaa !4
  %10 = getelementptr inbounds nuw %struct.range_set, ptr %9, i32 0, i32 1
  %11 = load i32, ptr %10, align 4, !tbaa !11
  %12 = icmp ne i32 %11, 0
  br i1 %12, label %13, label %14

13:                                               ; preds = %8
  br label %14

14:                                               ; preds = %13, %8
  store i32 1, ptr %3, align 4, !tbaa !20
  br label %15

15:                                               ; preds = %22, %14
  %16 = load i32, ptr %3, align 4, !tbaa !20
  %17 = load ptr, ptr %2, align 8, !tbaa !4
  %18 = getelementptr inbounds nuw %struct.range_set, ptr %17, i32 0, i32 1
  %19 = load i32, ptr %18, align 4, !tbaa !11
  %20 = icmp ult i32 %16, %19
  br i1 %20, label %21, label %25

21:                                               ; preds = %15
  br label %22

22:                                               ; preds = %21
  %23 = load i32, ptr %3, align 4, !tbaa !20
  %24 = add i32 %23, 1
  store i32 %24, ptr %3, align 4, !tbaa !20
  br label %15, !llvm.loop !25

25:                                               ; preds = %15
  store i32 0, ptr %4, align 4
  br label %26

26:                                               ; preds = %25, %7
  call void @llvm.lifetime.end.p0(i64 4, ptr %3) #9
  %27 = load i32, ptr %4, align 4
  switch i32 %27, label %29 [
    i32 0, label %28
    i32 1, label %28
  ]

28:                                               ; preds = %26, %26
  ret void

29:                                               ; preds = %26
  unreachable
}

; Function Attrs: inlinehint nounwind uwtable
define internal void @sane_qsort(ptr noundef %0, i64 noundef %1, i64 noundef %2, ptr noundef %3) #3 {
  %5 = alloca ptr, align 8
  %6 = alloca i64, align 8
  %7 = alloca i64, align 8
  %8 = alloca ptr, align 8
  store ptr %0, ptr %5, align 8, !tbaa !23
  store i64 %1, ptr %6, align 8, !tbaa !9
  store i64 %2, ptr %7, align 8, !tbaa !9
  store ptr %3, ptr %8, align 8, !tbaa !23
  %9 = load i64, ptr %6, align 8, !tbaa !9
  %10 = icmp ugt i64 %9, 1
  br i1 %10, label %11, label %16

11:                                               ; preds = %4
  %12 = load ptr, ptr %5, align 8, !tbaa !23
  %13 = load i64, ptr %6, align 8, !tbaa !9
  %14 = load i64, ptr %7, align 8, !tbaa !9
  %15 = load ptr, ptr %8, align 8, !tbaa !23
  call void @qsort(ptr noundef %12, i64 noundef %13, i64 noundef %14, ptr noundef %15)
  br label %16

16:                                               ; preds = %11, %4
  ret void
}

; Function Attrs: nounwind uwtable
define dso_local void @sort_and_merge_range_set(ptr noundef %0) #0 {
  %2 = alloca ptr, align 8
  %3 = alloca i32, align 4
  %4 = alloca i32, align 4
  store ptr %0, ptr %2, align 8, !tbaa !4
  call void @llvm.lifetime.start.p0(i64 4, ptr %3) #9
  call void @llvm.lifetime.start.p0(i64 4, ptr %4) #9
  store i32 0, ptr %4, align 4, !tbaa !20
  %5 = load ptr, ptr %2, align 8, !tbaa !4
  %6 = getelementptr inbounds nuw %struct.range_set, ptr %5, i32 0, i32 2
  %7 = load ptr, ptr %6, align 8, !tbaa !16
  %8 = load ptr, ptr %2, align 8, !tbaa !4
  %9 = getelementptr inbounds nuw %struct.range_set, ptr %8, i32 0, i32 1
  %10 = load i32, ptr %9, align 4, !tbaa !11
  %11 = zext i32 %10 to i64
  call void @sane_qsort(ptr noundef %7, i64 noundef %11, i64 noundef 16, ptr noundef @range_cmp)
  store i32 0, ptr %3, align 4, !tbaa !20
  br label %12

12:                                               ; preds = %130, %1
  %13 = load i32, ptr %3, align 4, !tbaa !20
  %14 = load ptr, ptr %2, align 8, !tbaa !4
  %15 = getelementptr inbounds nuw %struct.range_set, ptr %14, i32 0, i32 1
  %16 = load i32, ptr %15, align 4, !tbaa !11
  %17 = icmp ult i32 %13, %16
  br i1 %17, label %18, label %133

18:                                               ; preds = %12
  %19 = load ptr, ptr %2, align 8, !tbaa !4
  %20 = getelementptr inbounds nuw %struct.range_set, ptr %19, i32 0, i32 2
  %21 = load ptr, ptr %20, align 8, !tbaa !16
  %22 = load i32, ptr %3, align 4, !tbaa !20
  %23 = zext i32 %22 to i64
  %24 = getelementptr inbounds nuw %struct.range, ptr %21, i64 %23
  %25 = getelementptr inbounds nuw %struct.range, ptr %24, i32 0, i32 0
  %26 = load i64, ptr %25, align 8, !tbaa !17
  %27 = load ptr, ptr %2, align 8, !tbaa !4
  %28 = getelementptr inbounds nuw %struct.range_set, ptr %27, i32 0, i32 2
  %29 = load ptr, ptr %28, align 8, !tbaa !16
  %30 = load i32, ptr %3, align 4, !tbaa !20
  %31 = zext i32 %30 to i64
  %32 = getelementptr inbounds nuw %struct.range, ptr %29, i64 %31
  %33 = getelementptr inbounds nuw %struct.range, ptr %32, i32 0, i32 1
  %34 = load i64, ptr %33, align 8, !tbaa !19
  %35 = icmp eq i64 %26, %34
  br i1 %35, label %36, label %37

36:                                               ; preds = %18
  br label %130

37:                                               ; preds = %18
  %38 = load i32, ptr %4, align 4, !tbaa !20
  %39 = icmp ugt i32 %38, 0
  br i1 %39, label %40, label %96

40:                                               ; preds = %37
  %41 = load ptr, ptr %2, align 8, !tbaa !4
  %42 = getelementptr inbounds nuw %struct.range_set, ptr %41, i32 0, i32 2
  %43 = load ptr, ptr %42, align 8, !tbaa !16
  %44 = load i32, ptr %3, align 4, !tbaa !20
  %45 = zext i32 %44 to i64
  %46 = getelementptr inbounds nuw %struct.range, ptr %43, i64 %45
  %47 = getelementptr inbounds nuw %struct.range, ptr %46, i32 0, i32 0
  %48 = load i64, ptr %47, align 8, !tbaa !17
  %49 = load ptr, ptr %2, align 8, !tbaa !4
  %50 = getelementptr inbounds nuw %struct.range_set, ptr %49, i32 0, i32 2
  %51 = load ptr, ptr %50, align 8, !tbaa !16
  %52 = load i32, ptr %4, align 4, !tbaa !20
  %53 = sub i32 %52, 1
  %54 = zext i32 %53 to i64
  %55 = getelementptr inbounds nuw %struct.range, ptr %51, i64 %54
  %56 = getelementptr inbounds nuw %struct.range, ptr %55, i32 0, i32 1
  %57 = load i64, ptr %56, align 8, !tbaa !19
  %58 = icmp sle i64 %48, %57
  br i1 %58, label %59, label %96

59:                                               ; preds = %40
  %60 = load ptr, ptr %2, align 8, !tbaa !4
  %61 = getelementptr inbounds nuw %struct.range_set, ptr %60, i32 0, i32 2
  %62 = load ptr, ptr %61, align 8, !tbaa !16
  %63 = load i32, ptr %4, align 4, !tbaa !20
  %64 = sub i32 %63, 1
  %65 = zext i32 %64 to i64
  %66 = getelementptr inbounds nuw %struct.range, ptr %62, i64 %65
  %67 = getelementptr inbounds nuw %struct.range, ptr %66, i32 0, i32 1
  %68 = load i64, ptr %67, align 8, !tbaa !19
  %69 = load ptr, ptr %2, align 8, !tbaa !4
  %70 = getelementptr inbounds nuw %struct.range_set, ptr %69, i32 0, i32 2
  %71 = load ptr, ptr %70, align 8, !tbaa !16
  %72 = load i32, ptr %3, align 4, !tbaa !20
  %73 = zext i32 %72 to i64
  %74 = getelementptr inbounds nuw %struct.range, ptr %71, i64 %73
  %75 = getelementptr inbounds nuw %struct.range, ptr %74, i32 0, i32 1
  %76 = load i64, ptr %75, align 8, !tbaa !19
  %77 = icmp slt i64 %68, %76
  br i1 %77, label %78, label %95

78:                                               ; preds = %59
  %79 = load ptr, ptr %2, align 8, !tbaa !4
  %80 = getelementptr inbounds nuw %struct.range_set, ptr %79, i32 0, i32 2
  %81 = load ptr, ptr %80, align 8, !tbaa !16
  %82 = load i32, ptr %3, align 4, !tbaa !20
  %83 = zext i32 %82 to i64
  %84 = getelementptr inbounds nuw %struct.range, ptr %81, i64 %83
  %85 = getelementptr inbounds nuw %struct.range, ptr %84, i32 0, i32 1
  %86 = load i64, ptr %85, align 8, !tbaa !19
  %87 = load ptr, ptr %2, align 8, !tbaa !4
  %88 = getelementptr inbounds nuw %struct.range_set, ptr %87, i32 0, i32 2
  %89 = load ptr, ptr %88, align 8, !tbaa !16
  %90 = load i32, ptr %4, align 4, !tbaa !20
  %91 = sub i32 %90, 1
  %92 = zext i32 %91 to i64
  %93 = getelementptr inbounds nuw %struct.range, ptr %89, i64 %92
  %94 = getelementptr inbounds nuw %struct.range, ptr %93, i32 0, i32 1
  store i64 %86, ptr %94, align 8, !tbaa !19
  br label %95

95:                                               ; preds = %78, %59
  br label %129

96:                                               ; preds = %40, %37
  %97 = load ptr, ptr %2, align 8, !tbaa !4
  %98 = getelementptr inbounds nuw %struct.range_set, ptr %97, i32 0, i32 2
  %99 = load ptr, ptr %98, align 8, !tbaa !16
  %100 = load i32, ptr %3, align 4, !tbaa !20
  %101 = zext i32 %100 to i64
  %102 = getelementptr inbounds nuw %struct.range, ptr %99, i64 %101
  %103 = getelementptr inbounds nuw %struct.range, ptr %102, i32 0, i32 0
  %104 = load i64, ptr %103, align 8, !tbaa !17
  %105 = load ptr, ptr %2, align 8, !tbaa !4
  %106 = getelementptr inbounds nuw %struct.range_set, ptr %105, i32 0, i32 2
  %107 = load ptr, ptr %106, align 8, !tbaa !16
  %108 = load i32, ptr %4, align 4, !tbaa !20
  %109 = zext i32 %108 to i64
  %110 = getelementptr inbounds nuw %struct.range, ptr %107, i64 %109
  %111 = getelementptr inbounds nuw %struct.range, ptr %110, i32 0, i32 0
  store i64 %104, ptr %111, align 8, !tbaa !17
  %112 = load ptr, ptr %2, align 8, !tbaa !4
  %113 = getelementptr inbounds nuw %struct.range_set, ptr %112, i32 0, i32 2
  %114 = load ptr, ptr %113, align 8, !tbaa !16
  %115 = load i32, ptr %3, align 4, !tbaa !20
  %116 = zext i32 %115 to i64
  %117 = getelementptr inbounds nuw %struct.range, ptr %114, i64 %116
  %118 = getelementptr inbounds nuw %struct.range, ptr %117, i32 0, i32 1
  %119 = load i64, ptr %118, align 8, !tbaa !19
  %120 = load ptr, ptr %2, align 8, !tbaa !4
  %121 = getelementptr inbounds nuw %struct.range_set, ptr %120, i32 0, i32 2
  %122 = load ptr, ptr %121, align 8, !tbaa !16
  %123 = load i32, ptr %4, align 4, !tbaa !20
  %124 = zext i32 %123 to i64
  %125 = getelementptr inbounds nuw %struct.range, ptr %122, i64 %124
  %126 = getelementptr inbounds nuw %struct.range, ptr %125, i32 0, i32 1
  store i64 %119, ptr %126, align 8, !tbaa !19
  %127 = load i32, ptr %4, align 4, !tbaa !20
  %128 = add i32 %127, 1
  store i32 %128, ptr %4, align 4, !tbaa !20
  br label %129

129:                                              ; preds = %96, %95
  br label %130

130:                                              ; preds = %129, %36
  %131 = load i32, ptr %3, align 4, !tbaa !20
  %132 = add i32 %131, 1
  store i32 %132, ptr %3, align 4, !tbaa !20
  br label %12, !llvm.loop !21

133:                                              ; preds = %12
  %134 = load i32, ptr %4, align 4, !tbaa !20
  %135 = load ptr, ptr %2, align 8, !tbaa !4
  %136 = getelementptr inbounds nuw %struct.range_set, ptr %135, i32 0, i32 1
  store i32 %134, ptr %136, align 4, !tbaa !11
  %137 = load ptr, ptr %2, align 8, !tbaa !4
  call void @range_set_check_invariants(ptr noundef %137)
  call void @llvm.lifetime.end.p0(i64 4, ptr %4) #9
  call void @llvm.lifetime.end.p0(i64 4, ptr %3) #9
  ret void
}