; Function Attrs: nofree nounwind uwtable
define dso_local void @sort_and_merge_range_set(ptr noundef captures(none) %0) local_unnamed_addr #3 {
  %2 = getelementptr inbounds nuw i8, ptr %0, i64 8
  %3 = getelementptr inbounds nuw i8, ptr %0, i64 4
  %4 = load i32, ptr %3, align 4, !tbaa !12
  %5 = icmp ugt i32 %4, 1
  br i1 %5, label %6, label %sane_qsort.exit

6:                                                ; preds = %1
  %7 = zext i32 %4 to i64
  %8 = load ptr, ptr %2, align 8, !tbaa !11
  tail call void @qsort(ptr noundef %8, i64 noundef range(i64 0, 4294967296) %7, i64 noundef 16, ptr noundef nonnull @range_cmp) #16
  %.pre = load i32, ptr %3, align 4, !tbaa !12
  br label %sane_qsort.exit

sane_qsort.exit:                                  ; preds = %1, %6
  %9 = phi i32 [ %4, %1 ], [ %.pre, %6 ]
  %.not40 = icmp eq i32 %9, 0
  br i1 %.not40, label %._crit_edge, label %.lr.ph

.lr.ph:                                           ; preds = %sane_qsort.exit
  %10 = load ptr, ptr %2, align 8, !tbaa !11
  %wide.trip.count = zext i32 %9 to i64
  br label %11

11:                                               ; preds = %.lr.ph, %31
  %indvars.iv = phi i64 [ 0, %.lr.ph ], [ %indvars.iv.next, %31 ]
  %.039 = phi i32 [ 0, %.lr.ph ], [ %.1, %31 ]
  %12 = getelementptr inbounds nuw %struct.range, ptr %10, i64 %indvars.iv
  %13 = load i64, ptr %12, align 8, !tbaa !13
  %14 = getelementptr inbounds nuw i8, ptr %12, i64 8
  %15 = load i64, ptr %14, align 8, !tbaa !16
  %16 = icmp eq i64 %13, %15
  br i1 %16, label %31, label %17

17:                                               ; preds = %11
  %.not = icmp eq i32 %.039, 0
  br i1 %.not, label %26, label %18

18:                                               ; preds = %17
  %19 = add i32 %.039, -1
  %20 = zext i32 %19 to i64
  %21 = getelementptr inbounds nuw %struct.range, ptr %10, i64 %20, i32 1
  %22 = load i64, ptr %21, align 8, !tbaa !16
  %.not37 = icmp sgt i64 %13, %22
  br i1 %.not37, label %26, label %23

23:                                               ; preds = %18
  %24 = icmp slt i64 %22, %15
  br i1 %24, label %25, label %31

25:                                               ; preds = %23
  store i64 %15, ptr %21, align 8, !tbaa !16
  br label %31

26:                                               ; preds = %18, %17
  %27 = zext i32 %.039 to i64
  %28 = getelementptr inbounds nuw %struct.range, ptr %10, i64 %27
  store i64 %13, ptr %28, align 8, !tbaa !13
  %29 = getelementptr inbounds nuw %struct.range, ptr %10, i64 %27, i32 1
  store i64 %15, ptr %29, align 8, !tbaa !16
  %30 = add i32 %.039, 1
  br label %31

31:                                               ; preds = %26, %25, %23, %11
  %.1 = phi i32 [ %.039, %11 ], [ %.039, %25 ], [ %.039, %23 ], [ %30, %26 ]
  %indvars.iv.next = add nuw nsw i64 %indvars.iv, 1
  %exitcond.not = icmp eq i64 %indvars.iv.next, %wide.trip.count
  br i1 %exitcond.not, label %._crit_edge, label %11, !llvm.loop !17

._crit_edge:                                      ; preds = %31, %sane_qsort.exit
  %.0.lcssa = phi i32 [ 0, %sane_qsort.exit ], [ %.1, %31 ]
  store i32 %.0.lcssa, ptr %3, align 4, !tbaa !12
  ret void
}